target datalayout = "e-m:e-p270:32:32-p271:32:32-p272:64:64-i64:64-i128:128-f80:128-n8:16:32:64-S128"
target triple = "x86_64-pc-linux-gnu"

%"class.cvc5::internal::theory::arith::linear::UpdateInfo" = type <{ i32, i32, %"class.std::optional.0", i8, [3 x i8], %"class.std::optional", %"class.std::optional", [4 x i8], %"class.std::optional.0", %"class.std::optional.10", ptr, i32, [4 x i8] }>
%"class.std::optional" = type { %"struct.std::_Optional_base" }
%"struct.std::_Optional_base" = type { %"struct.std::_Optional_payload" }
%"struct.std::_Optional_payload" = type { %"struct.std::_Optional_payload_base.base", [3 x i8] }
%"struct.std::_Optional_payload_base.base" = type <{ %"union.std::_Optional_payload_base<int>::_Storage", i8 }>
%"union.std::_Optional_payload_base<int>::_Storage" = type { i32 }
%"class.std::optional.0" = type { %"struct.std::_Optional_base.1" }
%"struct.std::_Optional_base.1" = type { %"struct.std::_Optional_payload.3" }
%"struct.std::_Optional_payload.3" = type { %"struct.std::_Optional_payload.base.7", [7 x i8] }
%"struct.std::_Optional_payload.base.7" = type { %"struct.std::_Optional_payload_base.base.6" }
%"struct.std::_Optional_payload_base.base.6" = type <{ %"union.std::_Optional_payload_base<cvc5::internal::DeltaRational>::_Storage", i8 }>
%"union.std::_Optional_payload_base<cvc5::internal::DeltaRational>::_Storage" = type { %"class.cvc5::internal::DeltaRational" }
%"class.cvc5::internal::DeltaRational" = type { %"class.cvc5::internal::Rational", %"class.cvc5::internal::Rational" }
%"class.cvc5::internal::Rational" = type { %class.__gmp_expr }
%class.__gmp_expr = type { [1 x %struct.__mpq_struct] }
%struct.__mpq_struct = type { %struct.__mpz_struct, %struct.__mpz_struct }
%struct.__mpz_struct = type { i32, i32, ptr }
%"class.std::optional.10" = type { %"struct.std::_Optional_base.11" }
%"struct.std::_Optional_base.11" = type { %"struct.std::_Optional_payload.13" }
%"struct.std::_Optional_payload.13" = type { %"struct.std::_Optional_payload_base.base.15", [7 x i8] }
%"struct.std::_Optional_payload_base.base.15" = type <{ %"union.std::_Optional_payload_base<const cvc5::internal::Rational *>::_Storage", i8 }>
%"union.std::_Optional_payload_base<const cvc5::internal::Rational *>::_Storage" = type { ptr }

@_ZN4cvc58internal6theory5arith6linear10UpdateInfoC1EbjRKNS0_13DeltaRationalERKNS0_8RationalEPNS3_10ConstraintE = hidden unnamed_addr alias void (ptr, i1, i32, ptr, ptr, ptr), ptr @_ZN4cvc58internal6theory5arith6linear10UpdateInfoC2EbjRKNS0_13DeltaRationalERKNS0_8RationalEPNS3_10ConstraintE

; Function Attrs: mustprogress uwtable
define hidden void @_ZN4cvc58internal6theory5arith6linear10UpdateInfo8conflictEjRKNS0_13DeltaRationalERKNS0_8RationalEPNS3_10ConstraintE(ptr dead_on_unwind noalias writable sret(%"class.cvc5::internal::theory::arith::linear::UpdateInfo") align 8 %0, i32 noundef %1, ptr noundef nonnull align 8 dereferenceable(64) %2, ptr noundef nonnull align 8 dereferenceable(32) %3, ptr noundef %4) #4 align 2 {
  %6 = alloca ptr, align 8
  %7 = alloca i32, align 4
  %8 = alloca ptr, align 8
  %9 = alloca ptr, align 8
  %10 = alloca ptr, align 8
  store ptr %0, ptr %6, align 8
  store i32 %1, ptr %7, align 4, !tbaa !10
  store ptr %2, ptr %8, align 8, !tbaa !41
  store ptr %3, ptr %9, align 8, !tbaa !43
  store ptr %4, ptr %10, align 8, !tbaa !45
  %11 = load i32, ptr %7, align 4, !tbaa !10
  %12 = load ptr, ptr %8, align 8, !tbaa !41
  %13 = load ptr, ptr %9, align 8, !tbaa !43
  %14 = load ptr, ptr %10, align 8, !tbaa !45
  call void @_ZN4cvc58internal6theory5arith6linear10UpdateInfoC1EbjRKNS0_13DeltaRationalERKNS0_8RationalEPNS3_10ConstraintE(ptr noundef nonnull align 8 dereferenceable(204) %0, i1 noundef zeroext true, i32 noundef %11, ptr noundef nonnull align 8 dereferenceable(64) %12, ptr noundef nonnull align 8 dereferenceable(32) %13, ptr noundef %14)
  ret void
}