; Function Attrs: mustprogress uwtable
define hidden void @_ZN4cvc58internal6theory5arith6linear10UpdateInfo8conflictEjRKNS0_13DeltaRationalERKNS0_8RationalEPNS3_10ConstraintE(ptr dead_on_unwind noalias writable sret(%"class.cvc5::internal::theory::arith::linear::UpdateInfo") align 8 initializes((0, 8)) %0, i32 noundef %1, ptr noundef nonnull align 8 dereferenceable(64) %2, ptr noundef nonnull align 8 dereferenceable(32) %3, ptr noundef %4) local_unnamed_addr #3 align 2 personality ptr @__gxx_personality_v0 {
  store i32 %1, ptr %0, align 8, !tbaa !12
  %6 = getelementptr inbounds nuw i8, ptr %2, i64 4
  %7 = load i32, ptr %6, align 4, !tbaa !35
  %8 = icmp ne i32 %7, 0
  %9 = zext i1 %8 to i32
  %.inv.i.i.i = icmp sgt i32 %7, -1
  %10 = select i1 %.inv.i.i.i, i32 %9, i32 -1
  %11 = icmp eq i32 %10, 0
  br i1 %11, label %12, label %_ZN4cvc58internal6theory5arith6linear10UpdateInfoC2EbjRKNS0_13DeltaRationalERKNS0_8RationalEPNS3_10ConstraintE.exit

12:                                               ; preds = %5
  %13 = getelementptr inbounds nuw i8, ptr %2, i64 36
  %14 = load i32, ptr %13, align 4, !tbaa !35
  %15 = icmp ne i32 %14, 0
  %16 = zext i1 %15 to i32
  %.inv.i.i.i.i = icmp sgt i32 %14, -1
  %17 = select i1 %.inv.i.i.i.i, i32 %16, i32 -1
  br label %_ZN4cvc58internal6theory5arith6linear10UpdateInfoC2EbjRKNS0_13DeltaRationalERKNS0_8RationalEPNS3_10ConstraintE.exit

_ZN4cvc58internal6theory5arith6linear10UpdateInfoC2EbjRKNS0_13DeltaRationalERKNS0_8RationalEPNS3_10ConstraintE.exit: ; preds = %5, %12
  %.0.i.i = phi i32 [ %17, %12 ], [ %10, %5 ]
  %18 = getelementptr inbounds nuw i8, ptr %0, i64 4
  store i32 %.0.i.i, ptr %18, align 4, !tbaa !29
  %19 = getelementptr inbounds nuw i8, ptr %0, i64 8
  tail call void @_ZN4cvc58internal13DeltaRationalC2ERKS1_(ptr noundef nonnull align 8 dereferenceable(72) %19, ptr noundef nonnull align 8 dereferenceable(64) %2)
  %20 = getelementptr inbounds nuw i8, ptr %0, i64 72
  store i8 1, ptr %20, align 8, !tbaa !30
  %21 = getelementptr inbounds nuw i8, ptr %0, i64 80
  store i8 1, ptr %21, align 8, !tbaa !31
  %22 = getelementptr inbounds nuw i8, ptr %0, i64 88
  store i8 0, ptr %22, align 8, !tbaa !3
  %23 = getelementptr inbounds nuw i8, ptr %0, i64 96
  store i8 0, ptr %23, align 8, !tbaa !3
  %24 = getelementptr inbounds nuw i8, ptr %0, i64 168
  store i8 0, ptr %24, align 8, !tbaa !30
  %25 = getelementptr inbounds nuw i8, ptr %0, i64 176
  store ptr %3, ptr %25, align 8, !tbaa !39
  %26 = getelementptr inbounds nuw i8, ptr %0, i64 184
  store i8 1, ptr %26, align 8, !tbaa !32
  %27 = getelementptr inbounds nuw i8, ptr %0, i64 192
  store ptr %4, ptr %27, align 8, !tbaa !33
  %28 = getelementptr inbounds nuw i8, ptr %0, i64 200
  store i32 0, ptr %28, align 8, !tbaa !34
  ret void
}